target datalayout = "e-m:e-p270:32:32-p271:32:32-p272:64:64-i64:64-i128:128-f80:128-n8:16:32:64-S128"
target triple = "x86_64-pc-linux-gnu"

%struct.block_record_t = type { i32, ptr, ptr, ptr, i16 }

@block_record_cnt = external global i32, align 4
@block_record_table = external global ptr, align 8
@ablock_record_cnt = external global i32, align 4

; Function Attrs: nounwind uwtable
define dso_local ptr @topology_p_get_bitmap(ptr noundef %0) #0 {
  %2 = alloca ptr, align 8
  %3 = alloca ptr, align 8
  %4 = alloca i32, align 4
  %5 = alloca i32, align 4
  store ptr %0, ptr %3, align 8
  call void @llvm.lifetime.start.p0(i64 4, ptr %4) #8
  store i32 0, ptr %4, align 4
  br label %6

6:                                                ; preds = %31, %1
  %7 = load i32, ptr %4, align 4
  %8 = load i32, ptr @block_record_cnt, align 4
  %9 = load i32, ptr @ablock_record_cnt, align 4
  %10 = add nsw i32 %8, %9
  %11 = icmp slt i32 %7, %10
  br i1 %11, label %13, label %12

12:                                               ; preds = %6
  store i32 2, ptr %5, align 4
  br label %34

13:                                               ; preds = %6
  %14 = load ptr, ptr @block_record_table, align 8
  %15 = load i32, ptr %4, align 4
  %16 = sext i32 %15 to i64
  %17 = getelementptr inbounds %struct.block_record_t, ptr %14, i64 %16
  %18 = getelementptr inbounds nuw %struct.block_record_t, ptr %17, i32 0, i32 1
  %19 = load ptr, ptr %18, align 8
  %20 = load ptr, ptr %3, align 8
  %21 = call i32 @slurm_xstrcmp(ptr noundef %19, ptr noundef %20)
  %22 = icmp ne i32 %21, 0
  br i1 %22, label %30, label %23

23:                                               ; preds = %13
  %24 = load ptr, ptr @block_record_table, align 8
  %25 = load i32, ptr %4, align 4
  %26 = sext i32 %25 to i64
  %27 = getelementptr inbounds %struct.block_record_t, ptr %24, i64 %26
  %28 = getelementptr inbounds nuw %struct.block_record_t, ptr %27, i32 0, i32 2
  %29 = load ptr, ptr %28, align 8
  store ptr %29, ptr %2, align 8
  store i32 1, ptr %5, align 4
  br label %34

30:                                               ; preds = %13
  br label %31

31:                                               ; preds = %30
  %32 = load i32, ptr %4, align 4
  %33 = add nsw i32 %32, 1
  store i32 %33, ptr %4, align 4
  br label %6, !llvm.loop !11

34:                                               ; preds = %23, %12
  call void @llvm.lifetime.end.p0(i64 4, ptr %4) #8
  %35 = load i32, ptr %5, align 4
  switch i32 %35, label %39 [
    i32 2, label %36
    i32 1, label %37
  ]

36:                                               ; preds = %34
  store ptr null, ptr %2, align 8
  br label %37

37:                                               ; preds = %36, %34
  %38 = load ptr, ptr %2, align 8
  ret ptr %38

39:                                               ; preds = %34
  unreachable
}