; Function Attrs: nounwind uwtable
define dso_local ptr @topology_p_get_bitmap(ptr noundef %0) local_unnamed_addr #0 {
  %2 = load i32, ptr @block_record_cnt, align 4
  %3 = load i32, ptr @ablock_record_cnt, align 4
  %4 = add nsw i32 %3, %2
  %.not89 = icmp sgt i32 %4, 0
  br i1 %.not89, label %.lr.ph, label %.loopexit

5:                                                ; preds = %.lr.ph
  %indvars.iv.next = add nuw nsw i64 %indvars.iv, 1
  %6 = load i32, ptr @block_record_cnt, align 4
  %7 = load i32, ptr @ablock_record_cnt, align 4
  %8 = add nsw i32 %7, %6
  %9 = sext i32 %8 to i64
  %.not8 = icmp slt i64 %indvars.iv.next, %9
  br i1 %.not8, label %.lr.ph, label %.loopexit, !llvm.loop !11

.lr.ph:                                           ; preds = %1, %5
  %indvars.iv = phi i64 [ %indvars.iv.next, %5 ], [ 0, %1 ]
  %10 = load ptr, ptr @block_record_table, align 8
  %11 = getelementptr inbounds nuw %struct.block_record_t, ptr %10, i64 %indvars.iv, i32 1
  %12 = load ptr, ptr %11, align 8
  %13 = tail call i32 @slurm_xstrcmp(ptr noundef %12, ptr noundef %0) #9
  %.not = icmp eq i32 %13, 0
  br i1 %.not, label %14, label %5

14:                                               ; preds = %.lr.ph
  %15 = load ptr, ptr @block_record_table, align 8
  %16 = getelementptr inbounds nuw %struct.block_record_t, ptr %15, i64 %indvars.iv, i32 2
  %17 = load ptr, ptr %16, align 8
  br label %.loopexit

.loopexit:                                        ; preds = %5, %1, %14
  %spec.select = phi ptr [ %17, %14 ], [ null, %1 ], [ null, %5 ]
  ret ptr %spec.select
}